; Function Attrs: nounwind uwtable
define i32 @Jf_CutAreaRefEdge_rec(ptr noundef readonly captures(none) %0, ptr noundef readonly captures(none) %1) local_unnamed_addr #0 {
  %.val25 = load i32, ptr %1, align 4, !tbaa !14
  %3 = and i32 %.val25, 255
  %4 = and i32 %.val25, 15
  %.not32 = icmp eq i32 %4, 0
  br i1 %.not32, label %.critedge, label %.lr.ph

.lr.ph:                                           ; preds = %2
  %5 = getelementptr inbounds nuw i8, ptr %0, i64 120
  %6 = getelementptr i8, ptr %0, i64 48
  %7 = getelementptr inbounds nuw i8, ptr %0, i64 144
  %8 = getelementptr i8, ptr %0, i64 124
  %9 = getelementptr inbounds nuw i8, ptr %0, i64 152
  br label %10

10:                                               ; preds = %.lr.ph, %Vec_IntPush.exit
  %indvars.iv = phi i64 [ 1, %.lr.ph ], [ %indvars.iv.next, %Vec_IntPush.exit ]
  %.034 = phi i32 [ %3, %.lr.ph ], [ %.1, %Vec_IntPush.exit ]
  %11 = getelementptr inbounds nuw i32, ptr %1, i64 %indvars.iv
  %12 = load i32, ptr %11, align 4, !tbaa !14
  %13 = ashr i32 %12, 1
  %.not20 = icmp ult i32 %12, 2
  br i1 %.not20, label %.critedge, label %14

14:                                               ; preds = %10
  %15 = load ptr, ptr %0, align 8, !tbaa !59
  %16 = getelementptr i8, ptr %15, i64 144
  %.val = load ptr, ptr %16, align 8, !tbaa !68
  %17 = sext i32 %13 to i64
  %18 = getelementptr inbounds i32, ptr %.val, i64 %17
  %19 = load i32, ptr %18, align 4, !tbaa !14
  %20 = add nsw i32 %19, 1
  store i32 %20, ptr %18, align 4, !tbaa !14
  %.not21 = icmp eq i32 %19, 0
  br i1 %.not21, label %21, label %40

21:                                               ; preds = %14
  %.val.i.i = load ptr, ptr %6, align 8, !tbaa !13
  %22 = getelementptr inbounds i32, ptr %.val.i.i, i64 %17
  %23 = load i32, ptr %22, align 4, !tbaa !14
  %24 = load ptr, ptr %7, align 8, !tbaa !80
  %.val.i.i.i = load i32, ptr %5, align 8, !tbaa !81
  %25 = ashr i32 %23, %.val.i.i.i
  %26 = sext i32 %25 to i64
  %27 = getelementptr inbounds ptr, ptr %24, i64 %26
  %28 = load ptr, ptr %27, align 8, !tbaa !82
  %.val4.i.i.i = load i32, ptr %8, align 4, !tbaa !84
  %29 = and i32 %.val4.i.i.i, %23
  %30 = sext i32 %29 to i64
  %31 = getelementptr inbounds i64, ptr %28, i64 %30
  %32 = getelementptr inbounds nuw i8, ptr %31, i64 4
  %.val.i = load i32, ptr %32, align 4, !tbaa !14
  %33 = and i32 %.val.i, 15
  %34 = icmp eq i32 %33, 1
  br i1 %34, label %Jf_CutIsTriv.exit, label %Jf_CutIsTriv.exit.thread

Jf_CutIsTriv.exit:                                ; preds = %21
  %35 = getelementptr inbounds nuw i8, ptr %31, i64 8
  %36 = load i32, ptr %35, align 4, !tbaa !14
  %37 = ashr i32 %36, 1
  %.not30 = icmp eq i32 %37, %13
  br i1 %.not30, label %40, label %Jf_CutIsTriv.exit.thread

Jf_CutIsTriv.exit.thread:                         ; preds = %21, %Jf_CutIsTriv.exit
  %38 = tail call i32 @Jf_CutAreaRefEdge_rec(ptr noundef nonnull %0, ptr noundef nonnull %32)
  %39 = add nsw i32 %38, %.034
  br label %40

40:                                               ; preds = %Jf_CutIsTriv.exit.thread, %Jf_CutIsTriv.exit, %14
  %.1 = phi i32 [ %.034, %14 ], [ %.034, %Jf_CutIsTriv.exit ], [ %39, %Jf_CutIsTriv.exit.thread ]
  %41 = load ptr, ptr %9, align 8, !tbaa !111
  %42 = getelementptr inbounds nuw i8, ptr %41, i64 4
  %43 = load i32, ptr %42, align 4, !tbaa !7
  %44 = load i32, ptr %41, align 8, !tbaa !12
  %45 = icmp eq i32 %43, %44
  br i1 %45, label %46, label %.Vec_IntGrow.exit10_crit_edge.i

.Vec_IntGrow.exit10_crit_edge.i:                  ; preds = %40
  %.phi.trans.insert.i = getelementptr inbounds nuw i8, ptr %41, i64 8
  %.pre.i = load ptr, ptr %.phi.trans.insert.i, align 8, !tbaa !13
  br label %Vec_IntPush.exit

46:                                               ; preds = %40
  %47 = icmp slt i32 %43, 16
  br i1 %47, label %48, label %56

48:                                               ; preds = %46
  %49 = getelementptr inbounds nuw i8, ptr %41, i64 8
  %50 = load ptr, ptr %49, align 8, !tbaa !13
  %.not9.i.i = icmp eq ptr %50, null
  br i1 %.not9.i.i, label %53, label %51

51:                                               ; preds = %48
  %52 = tail call dereferenceable_or_null(64) ptr @realloc(ptr noundef nonnull %50, i64 noundef 64) #28
  br label %Vec_IntGrow.exit.i

53:                                               ; preds = %48
  %54 = tail call noalias dereferenceable_or_null(64) ptr @malloc(i64 noundef 64) #29
  br label %Vec_IntGrow.exit.i

Vec_IntGrow.exit.i:                               ; preds = %53, %51
  %55 = phi ptr [ %52, %51 ], [ %54, %53 ]
  store ptr %55, ptr %49, align 8, !tbaa !13
  store i32 16, ptr %41, align 8, !tbaa !12
  br label %Vec_IntPush.exit

56:                                               ; preds = %46
  %57 = shl nuw nsw i32 %43, 1
  %58 = getelementptr inbounds nuw i8, ptr %41, i64 8
  %59 = load ptr, ptr %58, align 8, !tbaa !13
  %.not9.i9.i = icmp eq ptr %59, null
  %60 = zext nneg i32 %57 to i64
  %61 = shl nuw nsw i64 %60, 2
  br i1 %.not9.i9.i, label %64, label %62

62:                                               ; preds = %56
  %63 = tail call ptr @realloc(ptr noundef nonnull %59, i64 noundef %61) #28
  br label %66

64:                                               ; preds = %56
  %65 = tail call noalias ptr @malloc(i64 noundef %61) #29
  br label %66

66:                                               ; preds = %64, %62
  %67 = phi ptr [ %63, %62 ], [ %65, %64 ]
  store ptr %67, ptr %58, align 8, !tbaa !13
  store i32 %57, ptr %41, align 8, !tbaa !12
  br label %Vec_IntPush.exit

Vec_IntPush.exit:                                 ; preds = %.Vec_IntGrow.exit10_crit_edge.i, %Vec_IntGrow.exit.i, %66
  %68 = phi ptr [ %.pre.i, %.Vec_IntGrow.exit10_crit_edge.i ], [ %67, %66 ], [ %55, %Vec_IntGrow.exit.i ]
  %69 = load i32, ptr %42, align 4, !tbaa !7
  %70 = add nsw i32 %69, 1
  store i32 %70, ptr %42, align 4, !tbaa !7
  %71 = sext i32 %69 to i64
  %72 = getelementptr inbounds i32, ptr %68, i64 %71
  store i32 %13, ptr %72, align 4, !tbaa !14
  %indvars.iv.next = add nuw nsw i64 %indvars.iv, 1
  %.val23 = load i32, ptr %1, align 4, !tbaa !14
  %73 = and i32 %.val23, 15
  %74 = zext nneg i32 %73 to i64
  %.not.not = icmp samesign ult i64 %indvars.iv, %74
  br i1 %.not.not, label %10, label %.critedge, !llvm.loop !142

.critedge:                                        ; preds = %10, %Vec_IntPush.exit, %2
  %.0.lcssa = phi i32 [ %3, %2 ], [ %.1, %Vec_IntPush.exit ], [ %.034, %10 ]
  ret i32 %.0.lcssa
}